; Function Attrs: mustprogress uwtable
define void @_ZN3gmx17HelpWriterContextC2ERKS0_(ptr nocapture noundef nonnull writeonly align 8 dereferenceable(8) %0, ptr nocapture noundef nonnull readonly align 8 dereferenceable(8) %1) unnamed_addr #0 align 2 personality ptr @__gxx_personality_v0 {
  %3 = tail call noalias noundef nonnull dereferenceable(48) ptr @_Znwm(i64 noundef 48) #16
  %4 = load ptr, ptr %1, align 8
  invoke void @_ZN3gmx17HelpWriterContext4ImplC2ERKS1_(ptr noundef nonnull align 8 dereferenceable(44) %3, ptr noundef nonnull align 8 dereferenceable(44) %4)
          to label %5 unwind label %6

5:                                                ; preds = %2
  store ptr %3, ptr %0, align 8
  ret void

6:                                                ; preds = %2
  %7 = landingpad { ptr, i32 }
          cleanup
  tail call void @_ZdlPv(ptr noundef nonnull %3) #19
  resume { ptr, i32 } %7
}